; Function Attrs: mustprogress uwtable
define noundef zeroext i8 @u_getCombiningClass_75(i32 noundef %c) local_unnamed_addr #4 personality ptr @__gxx_personality_v0 {
if.end.i.i.i:
  %0 = load atomic i32, ptr @_ZN6icu_75L11nfcInitOnceE acquire, align 4
  %cmp.not.i.i.i = icmp eq i32 %0, 2
  br i1 %cmp.not.i.i.i, label %if.else.i.i.i, label %land.lhs.true.i.i.i

land.lhs.true.i.i.i:                              ; preds = %if.end.i.i.i
  %call2.i.i.i = tail call noundef signext i8 @_ZN6icu_7520umtx_initImplPreInitERNS_9UInitOnceE(ptr noundef nonnull align 4 dereferenceable(8) @_ZN6icu_75L11nfcInitOnceE)
  %tobool3.not.i.i.i = icmp eq i8 %call2.i.i.i, 0
  br i1 %tobool3.not.i.i.i, label %if.else.i.i.i, label %if.end.i

if.end.i:                                         ; preds = %land.lhs.true.i.i.i
  %call1.i = tail call noundef ptr @_ZN6icu_757UMemorynwEm(i64 noundef 80) #13
  %new.isnull.i = icmp eq ptr %call1.i, null
  br i1 %new.isnull.i, label %_ZN6icu_7511Normalizer214getNFDInstanceER10UErrorCode.exit, label %if.end.i.i

if.end.i.i:                                       ; preds = %if.end.i
  store ptr getelementptr inbounds ({ [5 x ptr] }, ptr @_ZTVN6icu_7515Normalizer2ImplE, i64 0, i32 0, i64 2), ptr %call1.i, align 8
  %normTrie.i.i = getelementptr inbounds i8, ptr %call1.i, i64 32
  store ptr null, ptr %normTrie.i.i, align 8
  %fCanonIterDataInitOnce.i.i = getelementptr inbounds i8, ptr %call1.i, i64 64
  tail call void @llvm.memset.p0.i64(ptr noundef nonnull align 8 dereferenceable(16) %fCanonIterDataInitOnce.i.i, i8 0, i64 16, i1 false)
  tail call void @_ZN6icu_7515Normalizer2Impl4initEPKiPK7UCPTriePKtPKh(ptr noundef nonnull align 8 dereferenceable(80) %call1.i, ptr noundef nonnull @_ZL22norm2_nfc_data_indexes, ptr noundef nonnull @_ZL19norm2_nfc_data_trie, ptr noundef nonnull @_ZL24norm2_nfc_data_extraData, ptr noundef nonnull @_ZL23norm2_nfc_data_smallFCD)
  %call1.i.i = tail call noundef ptr @_ZN6icu_757UMemorynwEm(i64 noundef 88) #13
  %new.isnull.i.i = icmp eq ptr %call1.i.i, null
  br i1 %new.isnull.i.i, label %delete.notnull4.i.i, label %new.cont.i.i

new.cont.i.i:                                     ; preds = %if.end.i.i
  store ptr %call1.i, ptr %call1.i.i, align 8
  %comp.i.i.i = getelementptr inbounds i8, ptr %call1.i.i, i64 8
  %impl.i.i.i.i.i = getelementptr inbounds i8, ptr %call1.i.i, i64 16
  store ptr %call1.i, ptr %impl.i.i.i.i.i, align 8
  store ptr getelementptr inbounds ({ [24 x ptr] }, ptr @_ZTVN6icu_7518ComposeNormalizer2E, i64 0, i32 0, i64 2), ptr %comp.i.i.i, align 8
  %onlyContiguous.i.i.i.i = getelementptr inbounds i8, ptr %call1.i.i, i64 24
  store i8 0, ptr %onlyContiguous.i.i.i.i, align 8
  %decomp.i.i.i = getelementptr inbounds i8, ptr %call1.i.i, i64 32
  %impl.i.i5.i.i.i = getelementptr inbounds i8, ptr %call1.i.i, i64 40
  store ptr %call1.i, ptr %impl.i.i5.i.i.i, align 8
  store ptr getelementptr inbounds ({ [24 x ptr] }, ptr @_ZTVN6icu_7520DecomposeNormalizer2E, i64 0, i32 0, i64 2), ptr %decomp.i.i.i, align 8
  %fcd.i.i.i = getelementptr inbounds i8, ptr %call1.i.i, i64 48
  %impl.i.i6.i.i.i = getelementptr inbounds i8, ptr %call1.i.i, i64 56
  store ptr %call1.i, ptr %impl.i.i6.i.i.i, align 8
  store ptr getelementptr inbounds ({ [24 x ptr] }, ptr @_ZTVN6icu_7514FCDNormalizer2E, i64 0, i32 0, i64 2), ptr %fcd.i.i.i, align 8
  %fcc.i.i.i = getelementptr inbounds i8, ptr %call1.i.i, i64 64
  %impl.i.i7.i.i.i = getelementptr inbounds i8, ptr %call1.i.i, i64 72
  store ptr %call1.i, ptr %impl.i.i7.i.i.i, align 8
  store ptr getelementptr inbounds ({ [24 x ptr] }, ptr @_ZTVN6icu_7518ComposeNormalizer2E, i64 0, i32 0, i64 2), ptr %fcc.i.i.i, align 8
  %onlyContiguous.i8.i.i.i = getelementptr inbounds i8, ptr %call1.i.i, i64 80
  store i8 1, ptr %onlyContiguous.i8.i.i.i, align 8
  br label %_ZN6icu_7511Normalizer214getNFDInstanceER10UErrorCode.exit

delete.notnull4.i.i:                              ; preds = %if.end.i.i
  %vtable5.i.i = load ptr, ptr %call1.i, align 8
  %vfn6.i.i = getelementptr inbounds i8, ptr %vtable5.i.i, i64 8
  %1 = load ptr, ptr %vfn6.i.i, align 8
  tail call void %1(ptr noundef nonnull align 8 dereferenceable(80) %call1.i) #13
  br label %_ZN6icu_7511Normalizer214getNFDInstanceER10UErrorCode.exit

if.else.i.i.i:                                    ; preds = %land.lhs.true.i.i.i, %if.end.i.i.i
  %2 = load i32, ptr getelementptr inbounds ({ { i32 }, i32 }, ptr @_ZN6icu_75L11nfcInitOnceE, i64 0, i32 1), align 4
  %cmp.i9.i.i.i = icmp slt i32 %2, 1
  br i1 %cmp.i9.i.i.i, label %_ZN6icu_7511Normalizer214getNFDInstanceER10UErrorCode.exit.thread13, label %return

_ZN6icu_7511Normalizer214getNFDInstanceER10UErrorCode.exit.thread13: ; preds = %if.else.i.i.i
  %3 = load ptr, ptr @_ZN6icu_75L12nfcSingletonE, align 8
  %cmp.not.i15 = icmp eq ptr %3, null
  %decomp.i16 = getelementptr inbounds i8, ptr %3, i64 32
  %cond.i17 = select i1 %cmp.not.i15, ptr null, ptr %decomp.i16
  br label %if.then

_ZN6icu_7511Normalizer214getNFDInstanceER10UErrorCode.exit: ; preds = %delete.notnull4.i.i, %new.cont.i.i, %if.end.i
  %tobool.not = phi i1 [ true, %delete.notnull4.i.i ], [ false, %new.cont.i.i ], [ true, %if.end.i ]
  %errorCode.0 = phi i32 [ 7, %delete.notnull4.i.i ], [ 0, %new.cont.i.i ], [ 7, %if.end.i ]
  %retval.0.i = phi ptr [ null, %delete.notnull4.i.i ], [ %call1.i.i, %new.cont.i.i ], [ null, %if.end.i ]
  store ptr %retval.0.i, ptr @_ZN6icu_75L12nfcSingletonE, align 8
  tail call void @ucln_common_registerCleanup_75(i32 noundef 15, ptr noundef nonnull @_ZN6icu_75L24uprv_normalizer2_cleanupEv)
  store i32 %errorCode.0, ptr getelementptr inbounds ({ { i32 }, i32 }, ptr @_ZN6icu_75L11nfcInitOnceE, i64 0, i32 1), align 4
  tail call void @_ZN6icu_7521umtx_initImplPostInitERNS_9UInitOnceE(ptr noundef nonnull align 4 dereferenceable(8) @_ZN6icu_75L11nfcInitOnceE)
  %4 = load ptr, ptr @_ZN6icu_75L12nfcSingletonE, align 8
  %cmp.not.i = icmp eq ptr %4, null
  %decomp.i = getelementptr inbounds i8, ptr %4, i64 32
  %cond.i = select i1 %cmp.not.i, ptr null, ptr %decomp.i
  br i1 %tobool.not, label %return, label %if.then

if.then:                                          ; preds = %_ZN6icu_7511Normalizer214getNFDInstanceER10UErrorCode.exit.thread13, %_ZN6icu_7511Normalizer214getNFDInstanceER10UErrorCode.exit
  %cond.i21 = phi ptr [ %cond.i17, %_ZN6icu_7511Normalizer214getNFDInstanceER10UErrorCode.exit.thread13 ], [ %cond.i, %_ZN6icu_7511Normalizer214getNFDInstanceER10UErrorCode.exit ]
  %vtable = load ptr, ptr %cond.i21, align 8
  %vfn = getelementptr inbounds i8, ptr %vtable, i64 80
  %5 = load ptr, ptr %vfn, align 8
  %call2 = tail call noundef zeroext i8 %5(ptr noundef nonnull align 8 dereferenceable(8) %cond.i21, i32 noundef %c)
  br label %return

return:                                           ; preds = %if.else.i.i.i, %_ZN6icu_7511Normalizer214getNFDInstanceER10UErrorCode.exit, %if.then
  %retval.0 = phi i8 [ %call2, %if.then ], [ 0, %_ZN6icu_7511Normalizer214getNFDInstanceER10UErrorCode.exit ], [ 0, %if.else.i.i.i ]
  ret i8 %retval.0
}